target datalayout = "e-m:e-p270:32:32-p271:32:32-p272:64:64-i64:64-i128:128-f80:128-n8:16:32:64-S128"
target triple = "x86_64-pc-linux-gnu"

%struct.strvec = type { ptr, i64, i64 }
%struct.child_process = type { %struct.strvec, %struct.strvec, i32, i32, i64, ptr, ptr, i32, i32, i32, ptr, i16, ptr }

@the_repository = external global ptr, align 8
@.str.16 = private unnamed_addr constant [17 x i8] c"maintenance.auto\00", align 1
@.str.17 = private unnamed_addr constant [23 x i8] c"maintenance.autodetach\00", align 1
@.str.18 = private unnamed_addr constant [14 x i8] c"gc.autodetach\00", align 1
@.str.19 = private unnamed_addr constant [12 x i8] c"maintenance\00", align 1
@.str.20 = private unnamed_addr constant [4 x i8] c"run\00", align 1
@.str.21 = private unnamed_addr constant [7 x i8] c"--auto\00", align 1
@.str.22 = private unnamed_addr constant [8 x i8] c"--quiet\00", align 1
@.str.23 = private unnamed_addr constant [11 x i8] c"--no-quiet\00", align 1
@.str.24 = private unnamed_addr constant [9 x i8] c"--detach\00", align 1
@.str.25 = private unnamed_addr constant [12 x i8] c"--no-detach\00", align 1

; Function Attrs: inlinehint nounwind uwtable
define internal i32 @git_config_get_bool(ptr noundef %0, ptr noundef %1) #7 {
  %3 = alloca ptr, align 8
  %4 = alloca ptr, align 8
  store ptr %0, ptr %3, align 8, !tbaa !9
  store ptr %1, ptr %4, align 8, !tbaa !54
  %5 = load ptr, ptr @the_repository, align 8, !tbaa !28
  %6 = load ptr, ptr %3, align 8, !tbaa !9
  %7 = load ptr, ptr %4, align 8, !tbaa !54
  %8 = call i32 @repo_config_get_bool(ptr noundef %5, ptr noundef %6, ptr noundef %7)
  ret i32 %8
}

; Function Attrs: nounwind uwtable
define dso_local i32 @prepare_auto_maintenance(i32 noundef %0, ptr noundef %1) #0 {
  %3 = alloca i32, align 4
  %4 = alloca i32, align 4
  %5 = alloca ptr, align 8
  %6 = alloca i32, align 4
  %7 = alloca i32, align 4
  %8 = alloca i32, align 4
  store i32 %0, ptr %4, align 4, !tbaa !16
  store ptr %1, ptr %5, align 8, !tbaa !4
  call void @llvm.lifetime.start.p0(i64 4, ptr %6) #13
  call void @llvm.lifetime.start.p0(i64 4, ptr %7) #13
  %9 = call i32 @git_config_get_bool(ptr noundef @.str.16, ptr noundef %6)
  %10 = icmp ne i32 %9, 0
  br i1 %10, label %15, label %11

11:                                               ; preds = %2
  %12 = load i32, ptr %6, align 4, !tbaa !16
  %13 = icmp ne i32 %12, 0
  br i1 %13, label %15, label %14

14:                                               ; preds = %11
  store i32 0, ptr %3, align 4
  store i32 1, ptr %8, align 4
  br label %47

15:                                               ; preds = %11, %2
  %16 = call i32 @git_config_get_bool(ptr noundef @.str.17, ptr noundef %7)
  %17 = icmp ne i32 %16, 0
  br i1 %17, label %18, label %22

18:                                               ; preds = %15
  %19 = call i32 @git_config_get_bool(ptr noundef @.str.18, ptr noundef %7)
  %20 = icmp ne i32 %19, 0
  br i1 %20, label %21, label %22

21:                                               ; preds = %18
  store i32 1, ptr %7, align 4, !tbaa !16
  br label %22

22:                                               ; preds = %21, %18, %15
  %23 = load ptr, ptr %5, align 8, !tbaa !4
  %24 = getelementptr inbounds nuw %struct.child_process, ptr %23, i32 0, i32 11
  %25 = load i16, ptr %24, align 8
  %26 = and i16 %25, -9
  %27 = or i16 %26, 8
  store i16 %27, ptr %24, align 8
  %28 = load ptr, ptr %5, align 8, !tbaa !4
  %29 = getelementptr inbounds nuw %struct.child_process, ptr %28, i32 0, i32 11
  %30 = load i16, ptr %29, align 8
  %31 = and i16 %30, -65
  %32 = or i16 %31, 64
  store i16 %32, ptr %29, align 8
  %33 = load ptr, ptr %5, align 8, !tbaa !4
  %34 = getelementptr inbounds nuw %struct.child_process, ptr %33, i32 0, i32 0
  call void (ptr, ...) @strvec_pushl(ptr noundef %34, ptr noundef @.str.19, ptr noundef @.str.20, ptr noundef @.str.21, ptr noundef null)
  %35 = load ptr, ptr %5, align 8, !tbaa !4
  %36 = getelementptr inbounds nuw %struct.child_process, ptr %35, i32 0, i32 0
  %37 = load i32, ptr %4, align 4, !tbaa !16
  %38 = icmp ne i32 %37, 0
  %39 = select i1 %38, ptr @.str.22, ptr @.str.23
  %40 = call ptr @strvec_push(ptr noundef %36, ptr noundef %39)
  %41 = load ptr, ptr %5, align 8, !tbaa !4
  %42 = getelementptr inbounds nuw %struct.child_process, ptr %41, i32 0, i32 0
  %43 = load i32, ptr %7, align 4, !tbaa !16
  %44 = icmp ne i32 %43, 0
  %45 = select i1 %44, ptr @.str.24, ptr @.str.25
  %46 = call ptr @strvec_push(ptr noundef %42, ptr noundef %45)
  store i32 1, ptr %3, align 4
  store i32 1, ptr %8, align 4
  br label %47

47:                                               ; preds = %22, %14
  call void @llvm.lifetime.end.p0(i64 4, ptr %7) #13
  call void @llvm.lifetime.end.p0(i64 4, ptr %6) #13
  %48 = load i32, ptr %3, align 4
  ret i32 %48
}