; Function Attrs: nounwind uwtable
define dso_local range(i32 0, 2) i32 @prepare_auto_maintenance(i32 noundef %0, ptr noundef %1) local_unnamed_addr #3 {
  %3 = alloca i32, align 4
  %4 = alloca i32, align 4
  call void @llvm.lifetime.start.p0(i64 4, ptr nonnull %3) #21
  call void @llvm.lifetime.start.p0(i64 4, ptr nonnull %4) #21
  %5 = load ptr, ptr @the_repository, align 8, !tbaa !41
  %6 = call i32 @repo_config_get_bool(ptr noundef %5, ptr noundef nonnull @.str.16, ptr noundef nonnull %3) #21
  %7 = icmp ne i32 %6, 0
  %8 = load i32, ptr %3, align 4
  %9 = icmp ne i32 %8, 0
  %or.cond = select i1 %7, i1 true, i1 %9
  br i1 %or.cond, label %10, label %26

10:                                               ; preds = %2
  %11 = load ptr, ptr @the_repository, align 8, !tbaa !41
  %12 = call i32 @repo_config_get_bool(ptr noundef %11, ptr noundef nonnull @.str.17, ptr noundef nonnull %4) #21
  %.not = icmp eq i32 %12, 0
  br i1 %.not, label %17, label %13

13:                                               ; preds = %10
  %14 = load ptr, ptr @the_repository, align 8, !tbaa !41
  %15 = call i32 @repo_config_get_bool(ptr noundef %14, ptr noundef nonnull @.str.18, ptr noundef nonnull %4) #21
  %.not7 = icmp eq i32 %15, 0
  br i1 %.not7, label %17, label %16

16:                                               ; preds = %13
  store i32 1, ptr %4, align 4, !tbaa !18
  br label %17

17:                                               ; preds = %16, %13, %10
  %18 = getelementptr inbounds nuw i8, ptr %1, i64 104
  %19 = load i16, ptr %18, align 8
  %20 = or i16 %19, 72
  store i16 %20, ptr %18, align 8
  call void (ptr, ...) @strvec_pushl(ptr noundef %1, ptr noundef nonnull @.str.19, ptr noundef nonnull @.str.20, ptr noundef nonnull @.str.21, ptr noundef null) #21
  %.not8 = icmp eq i32 %0, 0
  %21 = select i1 %.not8, ptr @.str.23, ptr @.str.22
  %22 = call ptr @strvec_push(ptr noundef %1, ptr noundef nonnull %21) #21
  %23 = load i32, ptr %4, align 4, !tbaa !18
  %.not9 = icmp eq i32 %23, 0
  %24 = select i1 %.not9, ptr @.str.25, ptr @.str.24
  %25 = call ptr @strvec_push(ptr noundef %1, ptr noundef nonnull %24) #21
  br label %26

26:                                               ; preds = %2, %17
  %.0 = phi i32 [ 1, %17 ], [ 0, %2 ]
  call void @llvm.lifetime.end.p0(i64 4, ptr nonnull %4) #21
  call void @llvm.lifetime.end.p0(i64 4, ptr nonnull %3) #21
  ret i32 %.0
}